target datalayout = "e-m:e-p270:32:32-p271:32:32-p272:64:64-i64:64-i128:128-f80:128-n8:16:32:64-S128"
target triple = "x86_64-pc-linux-gnu"

@ett_cmd_data = internal global i32 0, align 4
@hf_tcpip_port_count = internal global i32 0, align 4
@hf_tcpip_port_name = internal global i32 0, align 4
@hf_tcpip_port_number = internal global i32 0, align 4
@hf_tcpip_port_protocol = internal global i32 0, align 4
@hf_tcpip_port_admin_state = internal global i32 0, align 4
@hf_tcpip_port_admin_capability = internal global i32 0, align 4
@ett_tcpip_admin_capability = internal global i32 0, align 4
@.str.825 = private unnamed_addr constant [7 x i8] c"Port: \00", align 1
@.str.826 = private unnamed_addr constant [11 x i8] c"Name: %s: \00", align 1
@.str.827 = private unnamed_addr constant [11 x i8] c"Number: %d\00", align 1
@dissect_tcpip_port_information.capability = internal constant [4 x ptr] [ptr @hf_tcpip_admin_capability_configurable, ptr @hf_tcpip_admin_capability_reset_required, ptr @hf_tcpip_admin_capability_reserved, ptr null], align 16

; Function Attrs: null_pointer_is_valid sspstrong uwtable
define internal i32 @dissect_tcpip_port_information(ptr noundef %0, ptr noundef %1, ptr noundef %2, ptr noundef %3, i32 noundef %4, i1 noundef zeroext %5) #0 {
  %7 = alloca ptr, align 8
  %8 = alloca ptr, align 8
  %9 = alloca ptr, align 8
  %10 = alloca ptr, align 8
  %11 = alloca i32, align 4
  %12 = alloca i8, align 1
  %13 = alloca i32, align 4
  %14 = alloca i32, align 4
  %15 = alloca i32, align 4
  %16 = alloca ptr, align 8
  %17 = alloca ptr, align 8
  %18 = alloca i8, align 1
  %19 = alloca ptr, align 8
  %20 = alloca i32, align 4
  store ptr %0, ptr %7, align 8
  store ptr %1, ptr %8, align 8
  store ptr %2, ptr %9, align 8
  store ptr %3, ptr %10, align 8
  store i32 %4, ptr %11, align 4
  %21 = zext i1 %5 to i8
  store i8 %21, ptr %12, align 1
  call void @llvm.lifetime.start.p0(i64 4, ptr %13) #14
  %22 = load i32, ptr %11, align 4
  store i32 %22, ptr %13, align 4
  call void @llvm.lifetime.start.p0(i64 4, ptr %14) #14
  %23 = load ptr, ptr %8, align 8
  %24 = load i32, ptr @hf_tcpip_port_count, align 4
  %25 = load ptr, ptr %10, align 8
  %26 = load i32, ptr %11, align 4
  %27 = call ptr @proto_tree_add_item_ret_uint(ptr noundef %23, i32 noundef %24, ptr noundef %25, i32 noundef %26, i32 noundef 1, i32 noundef -2147483648, ptr noundef %14)
  %28 = load i32, ptr %11, align 4
  %29 = add i32 %28, 1
  store i32 %29, ptr %11, align 4
  call void @llvm.lifetime.start.p0(i64 4, ptr %15) #14
  store i32 0, ptr %15, align 4
  br label %30

30:                                               ; preds = %105, %6
  %31 = load i32, ptr %15, align 4
  %32 = load i32, ptr %14, align 4
  %33 = icmp ult i32 %31, %32
  br i1 %33, label %35, label %34

34:                                               ; preds = %30
  call void @llvm.lifetime.end.p0(i64 4, ptr %15) #14
  br label %108

35:                                               ; preds = %30
  call void @llvm.lifetime.start.p0(i64 8, ptr %16) #14
  call void @llvm.lifetime.start.p0(i64 8, ptr %17) #14
  %36 = load ptr, ptr %8, align 8
  %37 = load ptr, ptr %10, align 8
  %38 = load i32, ptr %11, align 4
  %39 = load i32, ptr @ett_cmd_data, align 4
  %40 = call ptr @proto_tree_add_subtree(ptr noundef %36, ptr noundef %37, i32 noundef %38, i32 noundef 0, i32 noundef %39, ptr noundef %16, ptr noundef @.str.825)
  store ptr %40, ptr %17, align 8
  %41 = load i8, ptr %12, align 1, !range !9, !noundef !10
  %42 = trunc i8 %41 to i1
  %43 = zext i1 %42 to i32
  %44 = icmp eq i32 %43, 1
  br i1 %44, label %45, label %67

45:                                               ; preds = %35
  call void @llvm.lifetime.start.p0(i64 1, ptr %18) #14
  %46 = load ptr, ptr %10, align 8
  %47 = load i32, ptr %11, align 4
  %48 = call zeroext i8 @tvb_get_uint8(ptr noundef %46, i32 noundef %47)
  store i8 %48, ptr %18, align 1
  call void @llvm.lifetime.start.p0(i64 8, ptr %19) #14
  %49 = call ptr @wmem_packet_scope()
  %50 = load ptr, ptr %10, align 8
  %51 = load i32, ptr %11, align 4
  %52 = add i32 %51, 1
  %53 = load i8, ptr %18, align 1
  %54 = zext i8 %53 to i32
  %55 = call ptr @tvb_get_string_enc(ptr noundef %49, ptr noundef %50, i32 noundef %52, i32 noundef %54, i32 noundef 0)
  store ptr %55, ptr %19, align 8
  %56 = load ptr, ptr %7, align 8
  %57 = load ptr, ptr %17, align 8
  %58 = load ptr, ptr %9, align 8
  %59 = load ptr, ptr %10, align 8
  %60 = load i32, ptr %11, align 4
  %61 = load i32, ptr @hf_tcpip_port_name, align 4
  %62 = call i32 @dissect_cip_string_type(ptr noundef %56, ptr noundef %57, ptr noundef %58, ptr noundef %59, i32 noundef %60, i32 noundef %61, i32 noundef 218)
  %63 = load i32, ptr %11, align 4
  %64 = add i32 %63, %62
  store i32 %64, ptr %11, align 4
  %65 = load ptr, ptr %16, align 8
  %66 = load ptr, ptr %19, align 8
  call void (ptr, ptr, ...) @proto_item_append_text(ptr noundef %65, ptr noundef @.str.826, ptr noundef %66)
  call void @llvm.lifetime.end.p0(i64 8, ptr %19) #14
  call void @llvm.lifetime.end.p0(i64 1, ptr %18) #14
  br label %67

67:                                               ; preds = %45, %35
  call void @llvm.lifetime.start.p0(i64 4, ptr %20) #14
  %68 = load ptr, ptr %17, align 8
  %69 = load i32, ptr @hf_tcpip_port_number, align 4
  %70 = load ptr, ptr %10, align 8
  %71 = load i32, ptr %11, align 4
  %72 = call ptr @proto_tree_add_item_ret_uint(ptr noundef %68, i32 noundef %69, ptr noundef %70, i32 noundef %71, i32 noundef 2, i32 noundef -2147483648, ptr noundef %20)
  %73 = load i32, ptr %11, align 4
  %74 = add i32 %73, 2
  store i32 %74, ptr %11, align 4
  %75 = load ptr, ptr %16, align 8
  %76 = load i32, ptr %20, align 4
  call void (ptr, ptr, ...) @proto_item_append_text(ptr noundef %75, ptr noundef @.str.827, i32 noundef %76)
  %77 = load ptr, ptr %17, align 8
  %78 = load i32, ptr @hf_tcpip_port_protocol, align 4
  %79 = load ptr, ptr %10, align 8
  %80 = load i32, ptr %11, align 4
  %81 = call ptr @proto_tree_add_item(ptr noundef %77, i32 noundef %78, ptr noundef %79, i32 noundef %80, i32 noundef 1, i32 noundef -2147483648)
  %82 = load i32, ptr %11, align 4
  %83 = add i32 %82, 1
  store i32 %83, ptr %11, align 4
  %84 = load ptr, ptr %17, align 8
  %85 = load i32, ptr @hf_tcpip_port_admin_state, align 4
  %86 = load ptr, ptr %10, align 8
  %87 = load i32, ptr %11, align 4
  %88 = call ptr @proto_tree_add_item(ptr noundef %84, i32 noundef %85, ptr noundef %86, i32 noundef %87, i32 noundef 1, i32 noundef -2147483648)
  %89 = load i32, ptr %11, align 4
  %90 = add i32 %89, 1
  store i32 %90, ptr %11, align 4
  %91 = load i8, ptr %12, align 1, !range !9, !noundef !10
  %92 = trunc i8 %91 to i1
  %93 = zext i1 %92 to i32
  %94 = icmp eq i32 %93, 1
  br i1 %94, label %95, label %104

95:                                               ; preds = %67
  %96 = load ptr, ptr %17, align 8
  %97 = load ptr, ptr %10, align 8
  %98 = load i32, ptr %11, align 4
  %99 = load i32, ptr @hf_tcpip_port_admin_capability, align 4
  %100 = load i32, ptr @ett_tcpip_admin_capability, align 4
  %101 = call ptr @proto_tree_add_bitmask(ptr noundef %96, ptr noundef %97, i32 noundef %98, i32 noundef %99, i32 noundef %100, ptr noundef @dissect_tcpip_port_information.capability, i32 noundef -2147483648)
  %102 = load i32, ptr %11, align 4
  %103 = add i32 %102, 1
  store i32 %103, ptr %11, align 4
  br label %104

104:                                              ; preds = %95, %67
  call void @llvm.lifetime.end.p0(i64 4, ptr %20) #14
  call void @llvm.lifetime.end.p0(i64 8, ptr %17) #14
  call void @llvm.lifetime.end.p0(i64 8, ptr %16) #14
  br label %105

105:                                              ; preds = %104
  %106 = load i32, ptr %15, align 4
  %107 = add i32 %106, 1
  store i32 %107, ptr %15, align 4
  br label %30, !llvm.loop !19

108:                                              ; preds = %34
  %109 = load i32, ptr %11, align 4
  %110 = load i32, ptr %13, align 4
  %111 = sub i32 %109, %110
  call void @llvm.lifetime.end.p0(i64 4, ptr %14) #14
  call void @llvm.lifetime.end.p0(i64 4, ptr %13) #14
  ret i32 %111
}