; Function Attrs: null_pointer_is_valid sspstrong uwtable
define internal fastcc noundef i32 @dissect_tcpip_port_information(ptr noundef %0, ptr noundef %1, ptr noundef %2, ptr noundef %3, i32 noundef %4, i1 noundef zeroext %5) unnamed_addr #0 {
  %7 = alloca i32, align 4
  %8 = alloca ptr, align 8
  %9 = alloca i32, align 4
  call void @llvm.lifetime.start.p0(i64 4, ptr nonnull %7) #12
  %10 = load i32, ptr @hf_tcpip_port_count, align 4
  %11 = call ptr @proto_tree_add_item_ret_uint(ptr noundef %1, i32 noundef %10, ptr noundef %3, i32 noundef %4, i32 noundef 1, i32 noundef -2147483648, ptr noundef nonnull %7)
  %12 = add i32 %4, 1
  %13 = load i32, ptr %7, align 4
  %.not = icmp eq i32 %13, 0
  br i1 %.not, label %._crit_edge, label %.lr.ph

._crit_edge:                                      ; preds = %44, %6
  %.0.lcssa = phi i32 [ %12, %6 ], [ %.2, %44 ]
  %14 = sub i32 %.0.lcssa, %4
  call void @llvm.lifetime.end.p0(i64 4, ptr nonnull %7) #12
  ret i32 %14

.lr.ph:                                           ; preds = %6, %44
  %.043 = phi i32 [ %.2, %44 ], [ %12, %6 ]
  %.04142 = phi i32 [ %45, %44 ], [ 0, %6 ]
  call void @llvm.lifetime.start.p0(i64 8, ptr nonnull %8) #12
  %15 = load i32, ptr @ett_cmd_data, align 4
  %16 = call ptr @proto_tree_add_subtree(ptr noundef %1, ptr noundef %3, i32 noundef %.043, i32 noundef 0, i32 noundef %15, ptr noundef nonnull %8, ptr noundef nonnull @.str.825)
  br i1 %5, label %17, label %27

17:                                               ; preds = %.lr.ph
  %18 = call zeroext i8 @tvb_get_uint8(ptr noundef %3, i32 noundef %.043)
  %19 = call ptr @wmem_packet_scope()
  %20 = add i32 %.043, 1
  %21 = zext i8 %18 to i32
  %22 = call ptr @tvb_get_string_enc(ptr noundef %19, ptr noundef %3, i32 noundef %20, i32 noundef %21, i32 noundef 0)
  %23 = load i32, ptr @hf_tcpip_port_name, align 4
  %24 = call i32 @dissect_cip_string_type(ptr noundef %0, ptr noundef %16, ptr noundef %2, ptr noundef %3, i32 noundef %.043, i32 noundef %23, i32 noundef 218)
  %25 = add i32 %24, %.043
  %26 = load ptr, ptr %8, align 8
  call void (ptr, ptr, ...) @proto_item_append_text(ptr noundef %26, ptr noundef nonnull @.str.826, ptr noundef %22)
  br label %27

27:                                               ; preds = %17, %.lr.ph
  %.1 = phi i32 [ %25, %17 ], [ %.043, %.lr.ph ]
  call void @llvm.lifetime.start.p0(i64 4, ptr nonnull %9) #12
  %28 = load i32, ptr @hf_tcpip_port_number, align 4
  %29 = call ptr @proto_tree_add_item_ret_uint(ptr noundef %16, i32 noundef %28, ptr noundef %3, i32 noundef %.1, i32 noundef 2, i32 noundef -2147483648, ptr noundef nonnull %9)
  %30 = add i32 %.1, 2
  %31 = load ptr, ptr %8, align 8
  %32 = load i32, ptr %9, align 4
  call void (ptr, ptr, ...) @proto_item_append_text(ptr noundef %31, ptr noundef nonnull @.str.827, i32 noundef %32)
  %33 = load i32, ptr @hf_tcpip_port_protocol, align 4
  %34 = call ptr @proto_tree_add_item(ptr noundef %16, i32 noundef %33, ptr noundef %3, i32 noundef %30, i32 noundef 1, i32 noundef -2147483648)
  %35 = add i32 %.1, 3
  %36 = load i32, ptr @hf_tcpip_port_admin_state, align 4
  %37 = call ptr @proto_tree_add_item(ptr noundef %16, i32 noundef %36, ptr noundef %3, i32 noundef %35, i32 noundef 1, i32 noundef -2147483648)
  %38 = add i32 %.1, 4
  br i1 %5, label %39, label %44

39:                                               ; preds = %27
  %40 = load i32, ptr @hf_tcpip_port_admin_capability, align 4
  %41 = load i32, ptr @ett_tcpip_admin_capability, align 4
  %42 = call ptr @proto_tree_add_bitmask(ptr noundef %16, ptr noundef %3, i32 noundef %38, i32 noundef %40, i32 noundef %41, ptr noundef nonnull @dissect_tcpip_port_information.capability, i32 noundef -2147483648)
  %43 = add i32 %.1, 5
  br label %44

44:                                               ; preds = %39, %27
  %.2 = phi i32 [ %43, %39 ], [ %38, %27 ]
  call void @llvm.lifetime.end.p0(i64 4, ptr nonnull %9) #12
  call void @llvm.lifetime.end.p0(i64 8, ptr nonnull %8) #12
  %45 = add nuw i32 %.04142, 1
  %46 = load i32, ptr %7, align 4
  %47 = icmp ult i32 %45, %46
  br i1 %47, label %.lr.ph, label %._crit_edge, !llvm.loop !20
}